target datalayout = "e-m:e-p270:32:32-p271:32:32-p272:64:64-i64:64-i128:128-f80:128-n8:16:32:64-S128"
target triple = "x86_64-pc-linux-gnu"

%struct.ReorderBuffer = type { ptr, %struct.dlist_head, %struct.dlist_head, %struct.dclist_head, i32, ptr, ptr, ptr, ptr, ptr, ptr, ptr, ptr, ptr, ptr, ptr, ptr, ptr, ptr, ptr, ptr, ptr, ptr, ptr, ptr, i8, ptr, ptr, ptr, ptr, i64, ptr, i64, i64, ptr, i64, i64, i64, i64, i64, i64, i64, i64 }
%struct.dlist_head = type { %struct.dlist_node }
%struct.dlist_node = type { ptr, ptr }
%struct.dclist_head = type { %struct.dlist_head, i32 }
%struct.ReorderBufferTXN = type { i32, i32, i32, ptr, i64, i64, i64, ptr, i64, i16, i64, %union.anon.4, ptr, i64, %struct.dlist_node, ptr, i32, i64, i64, %struct.dlist_head, %struct.dlist_head, i64, ptr, ptr, %struct.dlist_head, i32, i32, ptr, %struct.dlist_node, %struct.dlist_node, %struct.pairingheap_node, i64, i64, ptr }
%union.anon.4 = type { i64 }
%struct.pairingheap_node = type { ptr, ptr, ptr }
%struct.dlist_mutable_iter = type { ptr, ptr, ptr }

@.str.5 = private unnamed_addr constant [28 x i8] c"aborting old transaction %u\00", align 1
@.str.6 = private unnamed_addr constant [16 x i8] c"reorderbuffer.c\00", align 1
@__func__.ReorderBufferAbortOld = private unnamed_addr constant [22 x i8] c"ReorderBufferAbortOld\00", align 1

; Function Attrs: nounwind uwtable
define dso_local void @ReorderBufferAbortOld(ptr noundef %0, i32 noundef %1) #0 {
  %3 = alloca ptr, align 8
  %4 = alloca i32, align 4
  %5 = alloca %struct.dlist_mutable_iter, align 8
  %6 = alloca i32, align 4
  %7 = alloca i32, align 4
  %8 = alloca ptr, align 8
  %9 = alloca i32, align 4
  %10 = alloca i32, align 4
  %11 = alloca i32, align 4
  store ptr %0, ptr %3, align 8
  store i32 %1, ptr %4, align 4
  call void @llvm.lifetime.start.p0(i64 24, ptr %5) #13
  br label %12

12:                                               ; preds = %2
  br label %13

13:                                               ; preds = %12
  br label %14

14:                                               ; preds = %13
  store i32 1, ptr %6, align 4
  br label %15

15:                                               ; preds = %14
  br label %16

16:                                               ; preds = %15
  br label %17

17:                                               ; preds = %16
  store i32 1, ptr %7, align 4
  %18 = load ptr, ptr %3, align 8
  %19 = getelementptr inbounds nuw %struct.ReorderBuffer, ptr %18, i32 0, i32 1
  %20 = getelementptr inbounds nuw %struct.dlist_head, ptr %19, i32 0, i32 0
  %21 = getelementptr inbounds nuw %struct.dlist_mutable_iter, ptr %5, i32 0, i32 2
  store ptr %20, ptr %21, align 8
  %22 = getelementptr inbounds nuw %struct.dlist_mutable_iter, ptr %5, i32 0, i32 2
  %23 = load ptr, ptr %22, align 8
  %24 = getelementptr inbounds nuw %struct.dlist_node, ptr %23, i32 0, i32 1
  %25 = load ptr, ptr %24, align 8
  %26 = icmp ne ptr %25, null
  br i1 %26, label %27, label %32

27:                                               ; preds = %17
  %28 = getelementptr inbounds nuw %struct.dlist_mutable_iter, ptr %5, i32 0, i32 2
  %29 = load ptr, ptr %28, align 8
  %30 = getelementptr inbounds nuw %struct.dlist_node, ptr %29, i32 0, i32 1
  %31 = load ptr, ptr %30, align 8
  br label %35

32:                                               ; preds = %17
  %33 = getelementptr inbounds nuw %struct.dlist_mutable_iter, ptr %5, i32 0, i32 2
  %34 = load ptr, ptr %33, align 8
  br label %35

35:                                               ; preds = %32, %27
  %36 = phi ptr [ %31, %27 ], [ %34, %32 ]
  %37 = getelementptr inbounds nuw %struct.dlist_mutable_iter, ptr %5, i32 0, i32 0
  store ptr %36, ptr %37, align 8
  %38 = getelementptr inbounds nuw %struct.dlist_mutable_iter, ptr %5, i32 0, i32 0
  %39 = load ptr, ptr %38, align 8
  %40 = getelementptr inbounds nuw %struct.dlist_node, ptr %39, i32 0, i32 1
  %41 = load ptr, ptr %40, align 8
  %42 = getelementptr inbounds nuw %struct.dlist_mutable_iter, ptr %5, i32 0, i32 1
  store ptr %41, ptr %42, align 8
  br label %43

43:                                               ; preds = %97, %35
  %44 = getelementptr inbounds nuw %struct.dlist_mutable_iter, ptr %5, i32 0, i32 0
  %45 = load ptr, ptr %44, align 8
  %46 = getelementptr inbounds nuw %struct.dlist_mutable_iter, ptr %5, i32 0, i32 2
  %47 = load ptr, ptr %46, align 8
  %48 = icmp ne ptr %45, %47
  br i1 %48, label %49, label %106

49:                                               ; preds = %43
  call void @llvm.lifetime.start.p0(i64 8, ptr %8) #13
  br label %50

50:                                               ; preds = %49
  br label %51

51:                                               ; preds = %50
  br label %52

52:                                               ; preds = %51
  store i32 1, ptr %9, align 4
  br label %53

53:                                               ; preds = %52
  br label %54

54:                                               ; preds = %53
  br label %55

55:                                               ; preds = %54
  store i32 1, ptr %10, align 4
  %56 = getelementptr inbounds nuw %struct.dlist_mutable_iter, ptr %5, i32 0, i32 0
  %57 = load ptr, ptr %56, align 8
  %58 = getelementptr inbounds i8, ptr %57, i64 -240
  store ptr %58, ptr %8, align 8
  %59 = load ptr, ptr %8, align 8
  %60 = getelementptr inbounds nuw %struct.ReorderBufferTXN, ptr %59, i32 0, i32 1
  %61 = load i32, ptr %60, align 4
  %62 = load i32, ptr %4, align 4
  %63 = call zeroext i1 @TransactionIdPrecedes(i32 noundef %61, i32 noundef %62)
  br i1 %63, label %64, label %92

64:                                               ; preds = %55
  br label %65

65:                                               ; preds = %64
  br i1 false, label %66, label %68

66:                                               ; preds = %65
  %67 = call zeroext i1 @errstart_cold(i32 noundef 13, ptr noundef null) #15
  br i1 %67, label %70, label %75

68:                                               ; preds = %65
  %69 = call zeroext i1 @errstart(i32 noundef 13, ptr noundef null)
  br i1 %69, label %70, label %75

70:                                               ; preds = %68, %66
  %71 = load ptr, ptr %8, align 8
  %72 = getelementptr inbounds nuw %struct.ReorderBufferTXN, ptr %71, i32 0, i32 1
  %73 = load i32, ptr %72, align 4
  %74 = call i32 (ptr, ...) @errmsg_internal(ptr noundef @.str.5, i32 noundef %73)
  call void @errfinish(ptr noundef @.str.6, i32 noundef 3104, ptr noundef @__func__.ReorderBufferAbortOld)
  br label %75

75:                                               ; preds = %70, %68, %66
  br label %76

76:                                               ; preds = %75
  br label %77

77:                                               ; preds = %76
  %78 = load ptr, ptr %8, align 8
  %79 = getelementptr inbounds nuw %struct.ReorderBufferTXN, ptr %78, i32 0, i32 0
  %80 = load i32, ptr %79, align 8
  %81 = and i32 %80, 16
  %82 = icmp ne i32 %81, 0
  br i1 %82, label %83, label %89

83:                                               ; preds = %77
  %84 = load ptr, ptr %3, align 8
  %85 = getelementptr inbounds nuw %struct.ReorderBuffer, ptr %84, i32 0, i32 17
  %86 = load ptr, ptr %85, align 8
  %87 = load ptr, ptr %3, align 8
  %88 = load ptr, ptr %8, align 8
  call void %86(ptr noundef %87, ptr noundef %88, i64 noundef 0)
  br label %89

89:                                               ; preds = %83, %77
  %90 = load ptr, ptr %3, align 8
  %91 = load ptr, ptr %8, align 8
  call void @ReorderBufferCleanupTXN(ptr noundef %90, ptr noundef %91)
  br label %93

92:                                               ; preds = %55
  store i32 1, ptr %11, align 4
  br label %94

93:                                               ; preds = %89
  store i32 0, ptr %11, align 4
  br label %94

94:                                               ; preds = %93, %92
  call void @llvm.lifetime.end.p0(i64 8, ptr %8) #13
  %95 = load i32, ptr %11, align 4
  switch i32 %95, label %107 [
    i32 0, label %96
  ]

96:                                               ; preds = %94
  br label %97

97:                                               ; preds = %96
  %98 = getelementptr inbounds nuw %struct.dlist_mutable_iter, ptr %5, i32 0, i32 1
  %99 = load ptr, ptr %98, align 8
  %100 = getelementptr inbounds nuw %struct.dlist_mutable_iter, ptr %5, i32 0, i32 0
  store ptr %99, ptr %100, align 8
  %101 = getelementptr inbounds nuw %struct.dlist_mutable_iter, ptr %5, i32 0, i32 0
  %102 = load ptr, ptr %101, align 8
  %103 = getelementptr inbounds nuw %struct.dlist_node, ptr %102, i32 0, i32 1
  %104 = load ptr, ptr %103, align 8
  %105 = getelementptr inbounds nuw %struct.dlist_mutable_iter, ptr %5, i32 0, i32 1
  store ptr %104, ptr %105, align 8
  br label %43, !llvm.loop !14

106:                                              ; preds = %43
  store i32 0, ptr %11, align 4
  br label %107

107:                                              ; preds = %106, %94
  call void @llvm.lifetime.end.p0(i64 24, ptr %5) #13
  %108 = load i32, ptr %11, align 4
  switch i32 %108, label %110 [
    i32 0, label %109
    i32 1, label %109
  ]

109:                                              ; preds = %107, %107
  ret void

110:                                              ; preds = %107
  unreachable
}