; Function Attrs: nounwind uwtable
define dso_local void @ReorderBufferAbortOld(ptr noundef %0, i32 noundef %1) local_unnamed_addr #0 {
  %3 = getelementptr inbounds nuw i8, ptr %0, i64 8
  %4 = getelementptr inbounds nuw i8, ptr %0, i64 16
  %5 = load ptr, ptr %4, align 8
  %.not = icmp eq ptr %5, null
  %.not172125 = icmp eq ptr %5, %3
  %.not1721 = select i1 %.not, i1 true, i1 %.not172125
  br i1 %.not1721, label %.critedge, label %.lr.ph

.lr.ph:                                           ; preds = %2
  %6 = getelementptr inbounds nuw i8, ptr %0, i64 168
  br label %7

7:                                                ; preds = %.lr.ph, %22
  %.sroa.0.022 = phi ptr [ %5, %.lr.ph ], [ %.sroa.8.023, %22 ]
  %.sroa.8.023.in = getelementptr inbounds nuw i8, ptr %.sroa.0.022, i64 8
  %.sroa.8.023 = load ptr, ptr %.sroa.8.023.in, align 8
  %8 = getelementptr inbounds i8, ptr %.sroa.0.022, i64 -240
  %9 = getelementptr inbounds i8, ptr %.sroa.0.022, i64 -236
  %10 = load i32, ptr %9, align 4
  %11 = tail call zeroext i1 @TransactionIdPrecedes(i32 noundef %10, i32 noundef %1) #19
  br i1 %11, label %12, label %.critedge

12:                                               ; preds = %7
  %13 = tail call zeroext i1 @errstart(i32 noundef 13, ptr noundef null) #19
  br i1 %13, label %14, label %17

14:                                               ; preds = %12
  %15 = load i32, ptr %9, align 4
  %16 = tail call i32 (ptr, ...) @errmsg_internal(ptr noundef nonnull @.str.5, i32 noundef %15) #19
  tail call void @errfinish(ptr noundef nonnull @.str.6, i32 noundef 3104, ptr noundef nonnull @__func__.ReorderBufferAbortOld) #19
  br label %17

17:                                               ; preds = %14, %12
  %18 = load i32, ptr %8, align 8
  %19 = and i32 %18, 16
  %.not18 = icmp eq i32 %19, 0
  br i1 %.not18, label %22, label %20

20:                                               ; preds = %17
  %21 = load ptr, ptr %6, align 8
  tail call void %21(ptr noundef %0, ptr noundef nonnull %8, i64 noundef 0) #19
  br label %22

22:                                               ; preds = %20, %17
  tail call fastcc void @ReorderBufferCleanupTXN(ptr noundef %0, ptr noundef nonnull %8)
  %.not17 = icmp eq ptr %.sroa.8.023, %3
  br i1 %.not17, label %.critedge, label %7

.critedge:                                        ; preds = %22, %7, %2
  ret void
}